; ModuleID = '6/2411.c'
source_filename = "6/2411.c"
target datalayout = "e-m:e-p270:32:32-p271:32:32-p272:64:64-i64:64-f80:128-n8:16:32:64-S128"
target triple = "x86_64-pc-linux-gnu"

@.str = private unnamed_addr constant [3 x i8] c"%d\00", align 1
@.str.1 = private unnamed_addr constant [5 x i8] c"%d%d\00", align 1
@.str.2 = private unnamed_addr constant [4 x i8] c"%d\0A\00", align 1

; Function Attrs: noinline nounwind uwtable
define dso_local i32 @main() #0 {
  %1 = alloca i32, align 4
  %2 = alloca i32, align 4
  %3 = alloca i32, align 4
  %4 = alloca i32, align 4
  %5 = alloca i32, align 4
  %6 = alloca i32, align 4
  %7 = alloca [100 x i32], align 16
  %8 = alloca [100 x i32], align 16
  %9 = alloca [100 x [100 x [100 x i32]]], align 16
  store i32 0, i32* %1, align 4
  store i32 0, i32* %6, align 4
  %10 = call i32 (i8*, ...) @__isoc99_scanf(i8* getelementptr inbounds ([3 x i8], [3 x i8]* @.str, i64 0, i64 0), i32* %2)
  store i32 0, i32* %3, align 4
  br label %11

11:                                               ; preds = %57, %0
  %12 = load i32, i32* %3, align 4
  %13 = load i32, i32* %2, align 4
  %14 = icmp slt i32 %12, %13
  br i1 %14, label %15, label %60

15:                                               ; preds = %11
  %16 = load i32, i32* %3, align 4
  %17 = sext i32 %16 to i64
  %18 = getelementptr inbounds [100 x i32], [100 x i32]* %7, i64 0, i64 %17
  %19 = load i32, i32* %3, align 4
  %20 = sext i32 %19 to i64
  %21 = getelementptr inbounds [100 x i32], [100 x i32]* %8, i64 0, i64 %20
  %22 = call i32 (i8*, ...) @__isoc99_scanf(i8* getelementptr inbounds ([5 x i8], [5 x i8]* @.str.1, i64 0, i64 0), i32* %18, i32* %21)
  store i32 0, i32* %4, align 4
  br label %23

23:                                               ; preds = %53, %15
  %24 = load i32, i32* %4, align 4
  %25 = load i32, i32* %3, align 4
  %26 = sext i32 %25 to i64
  %27 = getelementptr inbounds [100 x i32], [100 x i32]* %7, i64 0, i64 %26
  %28 = load i32, i32* %27, align 4
  %29 = icmp slt i32 %24, %28
  br i1 %29, label %30, label %56

30:                                               ; preds = %23
  store i32 0, i32* %5, align 4
  br label %31

31:                                               ; preds = %49, %30
  %32 = load i32, i32* %5, align 4
  %33 = load i32, i32* %3, align 4
  %34 = sext i32 %33 to i64
  %35 = getelementptr inbounds [100 x i32], [100 x i32]* %8, i64 0, i64 %34
  %36 = load i32, i32* %35, align 4
  %37 = icmp slt i32 %32, %36
  br i1 %37, label %38, label %52

38:                                               ; preds = %31
  %39 = load i32, i32* %3, align 4
  %40 = sext i32 %39 to i64
  %41 = getelementptr inbounds [100 x [100 x [100 x i32]]], [100 x [100 x [100 x i32]]]* %9, i64 0, i64 %40
  %42 = load i32, i32* %4, align 4
  %43 = sext i32 %42 to i64
  %44 = getelementptr inbounds [100 x [100 x i32]], [100 x [100 x i32]]* %41, i64 0, i64 %43
  %45 = load i32, i32* %5, align 4
  %46 = sext i32 %45 to i64
  %47 = getelementptr inbounds [100 x i32], [100 x i32]* %44, i64 0, i64 %46
  %48 = call i32 (i8*, ...) @__isoc99_scanf(i8* getelementptr inbounds ([3 x i8], [3 x i8]* @.str, i64 0, i64 0), i32* %47)
  br label %49

49:                                               ; preds = %38
  %50 = load i32, i32* %5, align 4
  %51 = add nsw i32 %50, 1
  store i32 %51, i32* %5, align 4
  br label %31

52:                                               ; preds = %31
  br label %53

53:                                               ; preds = %52
  %54 = load i32, i32* %4, align 4
  %55 = add nsw i32 %54, 1
  store i32 %55, i32* %4, align 4
  br label %23

56:                                               ; preds = %23
  br label %57

57:                                               ; preds = %56
  %58 = load i32, i32* %3, align 4
  %59 = add nsw i32 %58, 1
  store i32 %59, i32* %3, align 4
  br label %11

60:                                               ; preds = %11
  store i32 0, i32* %5, align 4
  br label %61

61:                                               ; preds = %128, %60
  %62 = load i32, i32* %5, align 4
  %63 = load i32, i32* %2, align 4
  %64 = icmp slt i32 %62, %63
  br i1 %64, label %65, label %131

65:                                               ; preds = %61
  store i32 0, i32* %6, align 4
  store i32 0, i32* %3, align 4
  br label %66

66:                                               ; preds = %122, %65
  %67 = load i32, i32* %3, align 4
  %68 = load i32, i32* %5, align 4
  %69 = sext i32 %68 to i64
  %70 = getelementptr inbounds [100 x i32], [100 x i32]* %8, i64 0, i64 %69
  %71 = load i32, i32* %70, align 4
  %72 = icmp slt i32 %67, %71
  br i1 %72, label %73, label %125

73:                                               ; preds = %66
  store i32 0, i32* %4, align 4
  br label %74

74:                                               ; preds = %118, %73
  %75 = load i32, i32* %4, align 4
  %76 = load i32, i32* %5, align 4
  %77 = sext i32 %76 to i64
  %78 = getelementptr inbounds [100 x i32], [100 x i32]* %7, i64 0, i64 %77
  %79 = load i32, i32* %78, align 4
  %80 = icmp slt i32 %75, %79
  br i1 %80, label %81, label %121

81:                                               ; preds = %74
  %82 = load i32, i32* %3, align 4
  %83 = icmp eq i32 %82, 0
  br i1 %83, label %103, label %84

84:                                               ; preds = %81
  %85 = load i32, i32* %3, align 4
  %86 = load i32, i32* %5, align 4
  %87 = sext i32 %86 to i64
  %88 = getelementptr inbounds [100 x i32], [100 x i32]* %8, i64 0, i64 %87
  %89 = load i32, i32* %88, align 4
  %90 = sub nsw i32 %89, 1
  %91 = icmp eq i32 %85, %90
  br i1 %91, label %103, label %92

92:                                               ; preds = %84
  %93 = load i32, i32* %4, align 4
  %94 = icmp eq i32 %93, 0
  br i1 %94, label %103, label %95

95:                                               ; preds = %92
  %96 = load i32, i32* %4, align 4
  %97 = load i32, i32* %5, align 4
  %98 = sext i32 %97 to i64
  %99 = getelementptr inbounds [100 x i32], [100 x i32]* %7, i64 0, i64 %98
  %100 = load i32, i32* %99, align 4
  %101 = sub nsw i32 %100, 1
  %102 = icmp eq i32 %96, %101
  br i1 %102, label %103, label %116

103:                                              ; preds = %95, %92, %84, %81
  %104 = load i32, i32* %5, align 4
  %105 = sext i32 %104 to i64
  %106 = getelementptr inbounds [100 x [100 x [100 x i32]]], [100 x [100 x [100 x i32]]]* %9, i64 0, i64 %105
  %107 = load i32, i32* %4, align 4
  %108 = sext i32 %107 to i64
  %109 = getelementptr inbounds [100 x [100 x i32]], [100 x [100 x i32]]* %106, i64 0, i64 %108
  %110 = load i32, i32* %3, align 4
  %111 = sext i32 %110 to i64
  %112 = getelementptr inbounds [100 x i32], [100 x i32]* %109, i64 0, i64 %111
  %113 = load i32, i32* %112, align 4
  %114 = load i32, i32* %6, align 4
  %115 = add nsw i32 %114, %113
  store i32 %115, i32* %6, align 4
  br label %117

116:                                              ; preds = %95
  br label %118

117:                                              ; preds = %103
  br label %118

118:                                              ; preds = %117, %116
  %119 = load i32, i32* %4, align 4
  %120 = add nsw i32 %119, 1
  store i32 %120, i32* %4, align 4
  br label %74

121:                                              ; preds = %74
  br label %122

122:                                              ; preds = %121
  %123 = load i32, i32* %3, align 4
  %124 = add nsw i32 %123, 1
  store i32 %124, i32* %3, align 4
  br label %66

125:                                              ; preds = %66
  %126 = load i32, i32* %6, align 4
  %127 = call i32 (i8*, ...) @printf(i8* getelementptr inbounds ([4 x i8], [4 x i8]* @.str.2, i64 0, i64 0), i32 %126)
  br label %128

128:                                              ; preds = %125
  %129 = load i32, i32* %5, align 4
  %130 = add nsw i32 %129, 1
  store i32 %130, i32* %5, align 4
  br label %61

131:                                              ; preds = %61
  ret i32 0
}

declare dso_local i32 @__isoc99_scanf(i8*, ...) #1

declare dso_local i32 @printf(i8*, ...) #1


!llvm.module.flags = !{!0}
!llvm.ident = !{!1}

!0 = !{i32 1, !"wchar_size", i32 4}
!1 = !{!"clang version 10.0.0-4ubuntu1 "}
